target datalayout = "e-m:e-p270:32:32-p271:32:32-p272:64:64-i64:64-i128:128-f80:128-n8:16:32:64-S128"
target triple = "x86_64-pc-linux-gnu"

@_ZN11OpenImageIO6v3_1_03pvt12openexr_coreE = external global i32, align 4
@_ZN11OpenImageIO6v3_1_012OpenEXRInputC1Ev = hidden unnamed_addr alias void (ptr), ptr @_ZN11OpenImageIO6v3_1_012OpenEXRInputC2Ev

; Function Attrs: mustprogress uwtable
define noundef ptr @_ZN11OpenImageIO6v3_1_028openexr_input_imageio_createEv() #8 personality ptr @__gxx_personality_v0 {
  %1 = alloca ptr, align 8
  %2 = alloca ptr, align 8
  %3 = alloca i32, align 4
  %4 = load i32, ptr @_ZN11OpenImageIO6v3_1_03pvt12openexr_coreE, align 4, !tbaa !14
  %5 = icmp ne i32 %4, 0
  br i1 %5, label %6, label %8

6:                                                ; preds = %0
  %7 = call noundef ptr @_ZN11OpenImageIO6v3_1_032openexrcore_input_imageio_createEv()
  store ptr %7, ptr %1, align 8
  br label %15

8:                                                ; preds = %0
  %9 = call noundef ptr @_ZN11OpenImageIO6v3_1_010ImageInputnwEm(i64 noundef 320)
  invoke void @_ZN11OpenImageIO6v3_1_012OpenEXRInputC1Ev(ptr noundef nonnull align 8 dereferenceable(320) %9)
          to label %10 unwind label %11

10:                                               ; preds = %8
  store ptr %9, ptr %1, align 8
  br label %15

11:                                               ; preds = %8
  %12 = landingpad { ptr, i32 }
          cleanup
  %13 = extractvalue { ptr, i32 } %12, 0
  store ptr %13, ptr %2, align 8
  %14 = extractvalue { ptr, i32 } %12, 1
  store i32 %14, ptr %3, align 4
  call void @_ZN11OpenImageIO6v3_1_010ImageInputdlEPv(ptr noundef %9) #5
  br label %17

15:                                               ; preds = %10, %6
  %16 = load ptr, ptr %1, align 8
  ret ptr %16

17:                                               ; preds = %11
  %18 = load ptr, ptr %2, align 8
  %19 = load i32, ptr %3, align 4
  %20 = insertvalue { ptr, i32 } poison, ptr %18, 0
  %21 = insertvalue { ptr, i32 } %20, i32 %19, 1
  resume { ptr, i32 } %21
}