; Function Attrs: mustprogress uwtable
define noundef ptr @_ZN11OpenImageIO6v3_1_028openexr_input_imageio_createEv() local_unnamed_addr #6 personality ptr @__gxx_personality_v0 {
  %1 = load i32, ptr @_ZN11OpenImageIO6v3_1_03pvt12openexr_coreE, align 4, !tbaa !15
  %.not = icmp eq i32 %1, 0
  br i1 %.not, label %4, label %2

2:                                                ; preds = %0
  %3 = tail call noundef ptr @_ZN11OpenImageIO6v3_1_032openexrcore_input_imageio_createEv()
  br label %13

4:                                                ; preds = %0
  %5 = tail call noundef ptr @_ZN11OpenImageIO6v3_1_010ImageInputnwEm(i64 noundef 320)
  invoke void @_ZN11OpenImageIO6v3_1_010ImageInputC2Ev(ptr noundef nonnull align 8 dereferenceable(320) %5)
          to label %_ZN11OpenImageIO6v3_1_012OpenEXRInputC2Ev.exit unwind label %11

_ZN11OpenImageIO6v3_1_012OpenEXRInputC2Ev.exit:   ; preds = %4
  store ptr getelementptr inbounds nuw inrange(-16, 272) (i8, ptr @_ZTVN11OpenImageIO6v3_1_012OpenEXRInputE, i64 16), ptr %5, align 8, !tbaa !17
  %6 = getelementptr inbounds nuw i8, ptr %5, i64 184
  %7 = getelementptr inbounds nuw i8, ptr %5, i64 264
  %8 = getelementptr inbounds nuw i8, ptr %5, i64 296
  tail call void @llvm.memset.p0.i64(ptr noundef nonnull align 8 dereferenceable(24) %8, i8 0, i64 24, i1 false)
  %9 = getelementptr inbounds nuw i8, ptr %5, i64 280
  tail call void @llvm.memset.p0.i64(ptr noundef nonnull align 8 dereferenceable(80) %6, i8 0, i64 80, i1 false)
  store i32 -1, ptr %9, align 8, !tbaa !19
  %10 = getelementptr inbounds nuw i8, ptr %5, i64 288
  store i32 -1, ptr %10, align 8, !tbaa !74
  tail call void @llvm.memset.p0.i64(ptr noundef nonnull align 8 dereferenceable(16) %7, i8 0, i64 16, i1 false)
  br label %13

11:                                               ; preds = %4
  %12 = landingpad { ptr, i32 }
          cleanup
  tail call void @_ZN11OpenImageIO6v3_1_010ImageInputdlEPv(ptr noundef nonnull %5) #32
  resume { ptr, i32 } %12

13:                                               ; preds = %_ZN11OpenImageIO6v3_1_012OpenEXRInputC2Ev.exit, %2
  %.0 = phi ptr [ %3, %2 ], [ %5, %_ZN11OpenImageIO6v3_1_012OpenEXRInputC2Ev.exit ]
  ret ptr %.0
}